target datalayout = "e-m:e-p270:32:32-p271:32:32-p272:64:64-i64:64-i128:128-f80:128-n8:16:32:64-S128"
target triple = "x86_64-pc-linux-gnu"

@stderr = external global ptr, align 8
@modenames = internal constant [12 x ptr] [ptr @.str.408, ptr @.str.409, ptr @.str.410, ptr @.str.411, ptr @.str.412, ptr @.str.413, ptr @.str.414, ptr @.str.415, ptr @.str.416, ptr @.str.417, ptr @.str.418, ptr null], align 16
@.str.419 = private unnamed_addr constant [35 x i8] c"LuaJIT 2.1.1736781742 VM builder.\0A\00", align 1
@.str.420 = private unnamed_addr constant [56 x i8] c"Copyright (C) 2005-2025 Mike Pall, https://luajit.org/\0A\00", align 1
@.str.421 = private unnamed_addr constant [27 x i8] c"Target architecture: x64\0A\0A\00", align 1
@.str.422 = private unnamed_addr constant [51 x i8] c"Usage: buildvm -m mode [-o outfile] [infiles...]\0A\0A\00", align 1
@.str.423 = private unnamed_addr constant [18 x i8] c"Available modes:\0A\00", align 1
@.str.424 = private unnamed_addr constant [6 x i8] c"  %s\0A\00", align 1

; Function Attrs: nounwind uwtable
define internal void @usage() #0 {
  %1 = alloca i32, align 4
  call void @llvm.lifetime.start.p0(i64 4, ptr %1) #12
  %2 = load ptr, ptr @stderr, align 8, !tbaa !69
  %3 = call i32 (ptr, ptr, ...) @fprintf(ptr noundef %2, ptr noundef @.str.419) #12
  %4 = load ptr, ptr @stderr, align 8, !tbaa !69
  %5 = call i32 (ptr, ptr, ...) @fprintf(ptr noundef %4, ptr noundef @.str.420) #12
  %6 = load ptr, ptr @stderr, align 8, !tbaa !69
  %7 = call i32 (ptr, ptr, ...) @fprintf(ptr noundef %6, ptr noundef @.str.421) #12
  %8 = load ptr, ptr @stderr, align 8, !tbaa !69
  %9 = call i32 (ptr, ptr, ...) @fprintf(ptr noundef %8, ptr noundef @.str.422) #12
  %10 = load ptr, ptr @stderr, align 8, !tbaa !69
  %11 = call i32 (ptr, ptr, ...) @fprintf(ptr noundef %10, ptr noundef @.str.423) #12
  store i32 0, ptr %1, align 4, !tbaa !9
  br label %12

12:                                               ; preds = %22, %0
  %13 = load i32, ptr %1, align 4, !tbaa !9
  %14 = icmp slt i32 %13, 11
  br i1 %14, label %15, label %25

15:                                               ; preds = %12
  %16 = load ptr, ptr @stderr, align 8, !tbaa !69
  %17 = load i32, ptr %1, align 4, !tbaa !9
  %18 = sext i32 %17 to i64
  %19 = getelementptr inbounds [12 x ptr], ptr @modenames, i64 0, i64 %18
  %20 = load ptr, ptr %19, align 8, !tbaa !46
  %21 = call i32 (ptr, ptr, ...) @fprintf(ptr noundef %16, ptr noundef @.str.424, ptr noundef %20) #12
  br label %22

22:                                               ; preds = %15
  %23 = load i32, ptr %1, align 4, !tbaa !9
  %24 = add nsw i32 %23, 1
  store i32 %24, ptr %1, align 4, !tbaa !9
  br label %12, !llvm.loop !111

25:                                               ; preds = %12
  call void @exit(i32 noundef 1) #14
  unreachable
}