; Function Attrs: cold nofree noreturn nounwind uwtable
define internal fastcc void @usage() unnamed_addr #18 {
  %1 = load ptr, ptr @stderr, align 8, !tbaa !58
  %2 = tail call i64 @fwrite(ptr nonnull @.str.419, i64 34, i64 1, ptr %1) #27
  %3 = load ptr, ptr @stderr, align 8, !tbaa !58
  %4 = tail call i64 @fwrite(ptr nonnull @.str.420, i64 55, i64 1, ptr %3) #27
  %5 = load ptr, ptr @stderr, align 8, !tbaa !58
  %6 = tail call i64 @fwrite(ptr nonnull @.str.421, i64 26, i64 1, ptr %5) #27
  %7 = load ptr, ptr @stderr, align 8, !tbaa !58
  %8 = tail call i64 @fwrite(ptr nonnull @.str.422, i64 50, i64 1, ptr %7) #27
  %9 = load ptr, ptr @stderr, align 8, !tbaa !58
  %10 = tail call i64 @fwrite(ptr nonnull @.str.423, i64 17, i64 1, ptr %9) #27
  br label %11

11:                                               ; preds = %0, %11
  %indvars.iv = phi i64 [ 0, %0 ], [ %indvars.iv.next, %11 ]
  %12 = load ptr, ptr @stderr, align 8, !tbaa !58
  %13 = getelementptr inbounds nuw [12 x ptr], ptr @modenames, i64 0, i64 %indvars.iv
  %14 = load ptr, ptr %13, align 8, !tbaa !60
  %15 = tail call i32 (ptr, ptr, ...) @fprintf(ptr noundef %12, ptr noundef nonnull @.str.424, ptr noundef %14) #31
  %indvars.iv.next = add nuw nsw i64 %indvars.iv, 1
  %exitcond.not = icmp eq i64 %indvars.iv.next, 11
  br i1 %exitcond.not, label %16, label %11, !llvm.loop !101

16:                                               ; preds = %11
  tail call void @exit(i32 noundef 1) #24
  unreachable
}